target datalayout = "e-m:e-p270:32:32-p271:32:32-p272:64:64-i64:64-i128:128-f80:128-n8:16:32:64-S128"
target triple = "x86_64-pc-linux-gnu"

%struct.ident_t = type { i32, i32, i32, i32, ptr }
%"class.LightGBM::Metric" = type { ptr }
%"class.std::vector" = type { %"struct.std::_Vector_base" }
%"struct.std::_Vector_base" = type { %"struct.std::_Vector_base<std::__cxx11::basic_string<char>, std::allocator<std::__cxx11::basic_string<char>>>::_Vector_impl" }
%"struct.std::_Vector_base<std::__cxx11::basic_string<char>, std::allocator<std::__cxx11::basic_string<char>>>::_Vector_impl" = type { %"struct.std::_Vector_base<std::__cxx11::basic_string<char>, std::allocator<std::__cxx11::basic_string<char>>>::_Vector_impl_data" }
%"struct.std::_Vector_base<std::__cxx11::basic_string<char>, std::allocator<std::__cxx11::basic_string<char>>>::_Vector_impl_data" = type { ptr, ptr, ptr }
%"class.LightGBM::CrossEntropyLambdaMetric" = type { %"class.LightGBM::Metric", i32, ptr, ptr, %"class.std::vector" }

@1 = private unnamed_addr constant %struct.ident_t { i32 0, i32 514, i32 0, i32 22, ptr @0 }, align 8
@.gomp_critical_user_.reduction.var = common global [8 x i32] zeroinitializer, align 8
@2 = private unnamed_addr constant %struct.ident_t { i32 0, i32 18, i32 0, i32 22, ptr @0 }, align 8

; Function Attrs: inlinehint mustprogress nounwind uwtable
define internal noundef double @_ZN8LightGBML8XentLossEfd(float noundef %0, double noundef %1) #5 {
  %3 = alloca float, align 4
  %4 = alloca double, align 8
  %5 = alloca double, align 8
  %6 = alloca double, align 8
  %7 = alloca double, align 8
  store float %0, ptr %3, align 4, !tbaa !130
  store double %1, ptr %4, align 8, !tbaa !138
  call void @llvm.lifetime.start.p0(i64 8, ptr %5) #3
  store double 0x3D719799812DEA11, ptr %5, align 8, !tbaa !138
  call void @llvm.lifetime.start.p0(i64 8, ptr %6) #3
  %8 = load float, ptr %3, align 4, !tbaa !130
  %9 = fpext float %8 to double
  store double %9, ptr %6, align 8, !tbaa !138
  %10 = load double, ptr %4, align 8, !tbaa !138
  %11 = fcmp ogt double %10, 0x3D719799812DEA11
  br i1 %11, label %12, label %17

12:                                               ; preds = %2
  %13 = load double, ptr %4, align 8, !tbaa !138
  %14 = call double @log(double noundef %13) #3, !tbaa !124
  %15 = load double, ptr %6, align 8, !tbaa !138
  %16 = fmul double %15, %14
  store double %16, ptr %6, align 8, !tbaa !138
  br label %21

17:                                               ; preds = %2
  %18 = call double @log(double noundef 0x3D719799812DEA11) #3, !tbaa !124
  %19 = load double, ptr %6, align 8, !tbaa !138
  %20 = fmul double %19, %18
  store double %20, ptr %6, align 8, !tbaa !138
  br label %21

21:                                               ; preds = %17, %12
  call void @llvm.lifetime.start.p0(i64 8, ptr %7) #3
  %22 = load float, ptr %3, align 4, !tbaa !130
  %23 = fsub float 1.000000e+00, %22
  %24 = fpext float %23 to double
  store double %24, ptr %7, align 8, !tbaa !138
  %25 = load double, ptr %4, align 8, !tbaa !138
  %26 = fsub double 1.000000e+00, %25
  %27 = fcmp ogt double %26, 0x3D719799812DEA11
  br i1 %27, label %28, label %34

28:                                               ; preds = %21
  %29 = load double, ptr %4, align 8, !tbaa !138
  %30 = fsub double 1.000000e+00, %29
  %31 = call double @log(double noundef %30) #3, !tbaa !124
  %32 = load double, ptr %7, align 8, !tbaa !138
  %33 = fmul double %32, %31
  store double %33, ptr %7, align 8, !tbaa !138
  br label %38

34:                                               ; preds = %21
  %35 = call double @log(double noundef 0x3D719799812DEA11) #3, !tbaa !124
  %36 = load double, ptr %7, align 8, !tbaa !138
  %37 = fmul double %36, %35
  store double %37, ptr %7, align 8, !tbaa !138
  br label %38

38:                                               ; preds = %34, %28
  %39 = load double, ptr %6, align 8, !tbaa !138
  %40 = load double, ptr %7, align 8, !tbaa !138
  %41 = fadd double %39, %40
  %42 = fneg double %41
  call void @llvm.lifetime.end.p0(i64 8, ptr %7) #3
  call void @llvm.lifetime.end.p0(i64 8, ptr %6) #3
  call void @llvm.lifetime.end.p0(i64 8, ptr %5) #3
  ret double %42
}

; Function Attrs: noinline noreturn nounwind uwtable
define linkonce_odr hidden void @__clang_call_terminate(ptr noundef %0) #10 comdat {
  %2 = call ptr @__cxa_begin_catch(ptr %0) #3
  call void @_ZSt9terminatev() #27
  unreachable
}

; Function Attrs: inlinehint mustprogress nounwind uwtable
define internal noundef double @_ZN8LightGBML14XentLambdaLossEffd(float noundef %0, float noundef %1, double noundef %2) #5 {
  %4 = alloca float, align 4
  %5 = alloca float, align 4
  %6 = alloca double, align 8
  store float %0, ptr %4, align 4, !tbaa !130
  store float %1, ptr %5, align 4, !tbaa !130
  store double %2, ptr %6, align 8, !tbaa !138
  %7 = load float, ptr %4, align 4, !tbaa !130
  %8 = load float, ptr %5, align 4, !tbaa !130
  %9 = fneg float %8
  %10 = fpext float %9 to double
  %11 = load double, ptr %6, align 8, !tbaa !138
  %12 = fmul double %10, %11
  %13 = call double @exp(double noundef %12) #3, !tbaa !124
  %14 = fsub double 1.000000e+00, %13
  %15 = call noundef double @_ZN8LightGBML8XentLossEfd(float noundef %7, double noundef %14)
  ret double %15
}

; Function Attrs: alwaysinline norecurse nounwind uwtable
define internal void @_ZNK8LightGBM24CrossEntropyLambdaMetric4EvalEPKdPKNS_17ObjectiveFunctionE.omp_outlined.95(ptr noalias noundef %0, ptr noalias noundef %1, ptr noundef %2, ptr noundef nonnull align 8 dereferenceable(8) %3, ptr noundef nonnull align 8 dereferenceable(8) %4) #17 personality ptr @__gxx_personality_v0 {
  %6 = alloca ptr, align 8
  %7 = alloca ptr, align 8
  %8 = alloca ptr, align 8
  %9 = alloca ptr, align 8
  %10 = alloca ptr, align 8
  %11 = alloca i32, align 4
  %12 = alloca i32, align 4
  %13 = alloca i32, align 4
  %14 = alloca i32, align 4
  %15 = alloca i32, align 4
  %16 = alloca i32, align 4
  %17 = alloca i32, align 4
  %18 = alloca i32, align 4
  %19 = alloca double, align 8
  %20 = alloca i32, align 4
  %21 = alloca double, align 8
  %22 = alloca [1 x ptr], align 8
  store ptr %0, ptr %6, align 8, !tbaa !234
  store ptr %1, ptr %7, align 8, !tbaa !234
  store ptr %2, ptr %8, align 8, !tbaa !94
  store ptr %3, ptr %9, align 8, !tbaa !222
  store ptr %4, ptr %10, align 8, !tbaa !135
  %23 = load ptr, ptr %8, align 8, !tbaa !94
  %24 = load ptr, ptr %9, align 8, !tbaa !222
  %25 = load ptr, ptr %10, align 8, !tbaa !135
  call void @llvm.lifetime.start.p0(i64 4, ptr %11) #3
  call void @llvm.lifetime.start.p0(i64 4, ptr %12) #3
  %26 = getelementptr inbounds nuw %"class.LightGBM::CrossEntropyLambdaMetric", ptr %23, i32 0, i32 1
  %27 = load i32, ptr %26, align 8, !tbaa !763
  store i32 %27, ptr %12, align 4, !tbaa !124
  call void @llvm.lifetime.start.p0(i64 4, ptr %13) #3
  %28 = load i32, ptr %12, align 4, !tbaa !124
  %29 = sub nsw i32 %28, 0
  %30 = sdiv i32 %29, 1
  %31 = sub nsw i32 %30, 1
  store i32 %31, ptr %13, align 4, !tbaa !124
  call void @llvm.lifetime.start.p0(i64 4, ptr %14) #3
  store i32 0, ptr %14, align 4, !tbaa !124
  call void @llvm.lifetime.end.p0(i64 4, ptr %14) #3
  %32 = load i32, ptr %12, align 4, !tbaa !124
  %33 = icmp slt i32 0, %32
  br i1 %33, label %34, label %101

34:                                               ; preds = %5
  call void @llvm.lifetime.start.p0(i64 4, ptr %15) #3
  store i32 0, ptr %15, align 4, !tbaa !124
  call void @llvm.lifetime.start.p0(i64 4, ptr %16) #3
  %35 = load i32, ptr %13, align 4, !tbaa !124
  store i32 %35, ptr %16, align 4, !tbaa !124
  call void @llvm.lifetime.start.p0(i64 4, ptr %17) #3
  store i32 1, ptr %17, align 4, !tbaa !124
  call void @llvm.lifetime.start.p0(i64 4, ptr %18) #3
  store i32 0, ptr %18, align 4, !tbaa !124
  call void @llvm.lifetime.start.p0(i64 8, ptr %19) #3
  store double 0.000000e+00, ptr %19, align 8, !tbaa !138
  call void @llvm.lifetime.start.p0(i64 4, ptr %20) #3
  %36 = load ptr, ptr %6, align 8
  %37 = load i32, ptr %36, align 4, !tbaa !124
  call void @__kmpc_for_static_init_4(ptr @1, i32 %37, i32 34, ptr %18, ptr %15, ptr %16, ptr %17, i32 1, i32 1)
  %38 = load i32, ptr %16, align 4, !tbaa !124
  %39 = load i32, ptr %13, align 4, !tbaa !124
  %40 = icmp sgt i32 %38, %39
  br i1 %40, label %41, label %43

41:                                               ; preds = %34
  %42 = load i32, ptr %13, align 4, !tbaa !124
  br label %45

43:                                               ; preds = %34
  %44 = load i32, ptr %16, align 4, !tbaa !124
  br label %45

45:                                               ; preds = %43, %41
  %46 = phi i32 [ %42, %41 ], [ %44, %43 ]
  store i32 %46, ptr %16, align 4, !tbaa !124
  %47 = load i32, ptr %15, align 4, !tbaa !124
  store i32 %47, ptr %11, align 4, !tbaa !124
  br label %48

48:                                               ; preds = %82, %45
  %49 = load i32, ptr %11, align 4, !tbaa !124
  %50 = load i32, ptr %16, align 4, !tbaa !124
  %51 = icmp sle i32 %49, %50
  br i1 %51, label %53, label %52

52:                                               ; preds = %48
  br label %85

53:                                               ; preds = %48
  %54 = load i32, ptr %11, align 4, !tbaa !124
  %55 = mul nsw i32 %54, 1
  %56 = add nsw i32 0, %55
  store i32 %56, ptr %20, align 4, !tbaa !124
  call void @llvm.lifetime.start.p0(i64 8, ptr %21) #3
  %57 = load ptr, ptr %24, align 8, !tbaa !135
  %58 = load i32, ptr %20, align 4, !tbaa !124
  %59 = sext i32 %58 to i64
  %60 = getelementptr inbounds double, ptr %57, i64 %59
  %61 = load double, ptr %60, align 8, !tbaa !138
  %62 = call double @exp(double noundef %61) #3, !tbaa !124
  %63 = call double @log1p(double noundef %62) #3, !tbaa !124
  store double %63, ptr %21, align 8, !tbaa !138
  %64 = getelementptr inbounds nuw %"class.LightGBM::CrossEntropyLambdaMetric", ptr %23, i32 0, i32 2
  %65 = load ptr, ptr %64, align 8, !tbaa !765
  %66 = load i32, ptr %20, align 4, !tbaa !124
  %67 = sext i32 %66 to i64
  %68 = getelementptr inbounds float, ptr %65, i64 %67
  %69 = load float, ptr %68, align 4, !tbaa !130
  %70 = getelementptr inbounds nuw %"class.LightGBM::CrossEntropyLambdaMetric", ptr %23, i32 0, i32 3
  %71 = load ptr, ptr %70, align 8, !tbaa !766
  %72 = load i32, ptr %20, align 4, !tbaa !124
  %73 = sext i32 %72 to i64
  %74 = getelementptr inbounds float, ptr %71, i64 %73
  %75 = load float, ptr %74, align 4, !tbaa !130
  %76 = load double, ptr %21, align 8, !tbaa !138
  %77 = invoke noundef double @_ZN8LightGBML14XentLambdaLossEffd(float noundef %69, float noundef %75, double noundef %76)
          to label %78 unwind label %102

78:                                               ; preds = %53
  %79 = load double, ptr %19, align 8, !tbaa !138
  %80 = fadd double %79, %77
  store double %80, ptr %19, align 8, !tbaa !138
  call void @llvm.lifetime.end.p0(i64 8, ptr %21) #3
  br label %81

81:                                               ; preds = %78
  br label %82

82:                                               ; preds = %81
  %83 = load i32, ptr %11, align 4, !tbaa !124
  %84 = add nsw i32 %83, 1
  store i32 %84, ptr %11, align 4, !tbaa !124
  br label %48

85:                                               ; preds = %52
  br label %86

86:                                               ; preds = %85
  %87 = load ptr, ptr %6, align 8
  %88 = load i32, ptr %87, align 4, !tbaa !124
  call void @__kmpc_for_static_fini(ptr @1, i32 %88)
  %89 = getelementptr inbounds [1 x ptr], ptr %22, i64 0, i64 0
  store ptr %19, ptr %89, align 8
  %90 = load ptr, ptr %6, align 8
  %91 = load i32, ptr %90, align 4, !tbaa !124
  %92 = call i32 @__kmpc_reduce_nowait(ptr @2, i32 %91, i32 1, i64 8, ptr %22, ptr @_ZNK8LightGBM24CrossEntropyLambdaMetric4EvalEPKdPKNS_17ObjectiveFunctionE.omp_outlined.95.omp.reduction.reduction_func, ptr @.gomp_critical_user_.reduction.var)
  switch i32 %92, label %100 [
    i32 1, label %93
    i32 2, label %97
  ]

93:                                               ; preds = %86
  %94 = load double, ptr %25, align 8, !tbaa !138
  %95 = load double, ptr %19, align 8, !tbaa !138
  %96 = fadd double %94, %95
  store double %96, ptr %25, align 8, !tbaa !138
  call void @__kmpc_end_reduce_nowait(ptr @2, i32 %91, ptr @.gomp_critical_user_.reduction.var)
  br label %100

97:                                               ; preds = %86
  %98 = load double, ptr %19, align 8, !tbaa !138
  %99 = atomicrmw fadd ptr %25, double %98 monotonic, align 8
  br label %100

100:                                              ; preds = %97, %93, %86
  call void @llvm.lifetime.end.p0(i64 4, ptr %20) #3
  call void @llvm.lifetime.end.p0(i64 8, ptr %19) #3
  call void @llvm.lifetime.end.p0(i64 4, ptr %18) #3
  call void @llvm.lifetime.end.p0(i64 4, ptr %17) #3
  call void @llvm.lifetime.end.p0(i64 4, ptr %16) #3
  call void @llvm.lifetime.end.p0(i64 4, ptr %15) #3
  br label %101

101:                                              ; preds = %100, %5
  call void @llvm.lifetime.end.p0(i64 4, ptr %13) #3
  call void @llvm.lifetime.end.p0(i64 4, ptr %12) #3
  call void @llvm.lifetime.end.p0(i64 4, ptr %11) #3
  ret void

102:                                              ; preds = %53
  %103 = landingpad { ptr, i32 }
          catch ptr null
  %104 = extractvalue { ptr, i32 } %103, 0
  call void @__clang_call_terminate(ptr %104) #27
  unreachable
}