; Function Attrs: alwaysinline norecurse nounwind uwtable
define internal void @_ZNK8LightGBM24CrossEntropyLambdaMetric4EvalEPKdPKNS_17ObjectiveFunctionE.omp_outlined.95(ptr noalias noundef readonly captures(none) %0, ptr noalias readnone captures(none) %1, ptr noundef readonly captures(none) %2, ptr noundef nonnull readonly align 8 captures(none) dereferenceable(8) %3, ptr noundef nonnull align 8 captures(none) dereferenceable(8) %4) #15 personality ptr @__gxx_personality_v0 {
  %6 = alloca i32, align 4
  %7 = alloca i32, align 4
  %8 = alloca i32, align 4
  %9 = alloca i32, align 4
  %10 = alloca double, align 8
  %11 = alloca [1 x ptr], align 8
  %12 = getelementptr inbounds nuw i8, ptr %2, i64 8
  %13 = load i32, ptr %12, align 8, !tbaa !523
  %14 = icmp sgt i32 %13, 0
  br i1 %14, label %15, label %72

15:                                               ; preds = %5
  %16 = add nsw i32 %13, -1
  call void @llvm.lifetime.start.p0(i64 4, ptr nonnull %6) #16
  store i32 0, ptr %6, align 4, !tbaa !127
  call void @llvm.lifetime.start.p0(i64 4, ptr nonnull %7) #16
  store i32 %16, ptr %7, align 4, !tbaa !127
  call void @llvm.lifetime.start.p0(i64 4, ptr nonnull %8) #16
  store i32 1, ptr %8, align 4, !tbaa !127
  call void @llvm.lifetime.start.p0(i64 4, ptr nonnull %9) #16
  store i32 0, ptr %9, align 4, !tbaa !127
  call void @llvm.lifetime.start.p0(i64 8, ptr nonnull %10) #16
  store double 0.000000e+00, ptr %10, align 8, !tbaa !84
  %17 = load i32, ptr %0, align 4, !tbaa !127
  call void @__kmpc_for_static_init_4(ptr nonnull @1, i32 %17, i32 34, ptr nonnull %9, ptr nonnull %6, ptr nonnull %7, ptr nonnull %8, i32 1, i32 1)
  %18 = load i32, ptr %7, align 4, !tbaa !127
  %19 = call i32 @llvm.smin.i32(i32 %18, i32 %16)
  store i32 %19, ptr %7, align 4, !tbaa !127
  %20 = load i32, ptr %6, align 4, !tbaa !127
  %.not17 = icmp sgt i32 %20, %19
  br i1 %.not17, label %._crit_edge, label %.lr.ph

.lr.ph:                                           ; preds = %15
  %21 = load ptr, ptr %3, align 8, !tbaa !81
  %22 = getelementptr inbounds nuw i8, ptr %2, i64 16
  %23 = load ptr, ptr %22, align 8, !tbaa !525
  %24 = getelementptr inbounds nuw i8, ptr %2, i64 24
  %25 = load ptr, ptr %24, align 8, !tbaa !526
  %26 = sext i32 %20 to i64
  br label %27

27:                                               ; preds = %.lr.ph, %_ZN8LightGBML14XentLambdaLossEffd.exit
  %indvars.iv = phi i64 [ %26, %.lr.ph ], [ %indvars.iv.next, %_ZN8LightGBML14XentLambdaLossEffd.exit ]
  %28 = phi double [ 0.000000e+00, %.lr.ph ], [ %60, %_ZN8LightGBML14XentLambdaLossEffd.exit ]
  %29 = getelementptr inbounds double, ptr %21, i64 %indvars.iv
  %30 = load double, ptr %29, align 8, !tbaa !84
  %31 = call double @exp(double noundef %30) #16, !tbaa !127
  %32 = call double @log1p(double noundef %31) #16, !tbaa !127
  %33 = getelementptr inbounds float, ptr %23, i64 %indvars.iv
  %34 = load float, ptr %33, align 4, !tbaa !78
  %35 = getelementptr inbounds float, ptr %25, i64 %indvars.iv
  %36 = load float, ptr %35, align 4, !tbaa !78
  %37 = fneg float %36
  %38 = fpext float %37 to double
  %39 = fmul double %32, %38
  %40 = call double @exp(double noundef %39) #16, !tbaa !127
  %41 = fsub double 1.000000e+00, %40
  %42 = fpext float %34 to double
  %43 = fcmp ogt double %41, 0x3D719799812DEA11
  br i1 %43, label %44, label %47

44:                                               ; preds = %27
  %45 = call double @llvm.log.f64(double %41), !tbaa !127
  %46 = fmul double %45, %42
  br label %49

47:                                               ; preds = %27
  %48 = fmul double %42, 0xC03BA18A998FFFA0
  br label %49

49:                                               ; preds = %47, %44
  %.012.i.i = phi double [ %46, %44 ], [ %48, %47 ]
  %50 = fsub float 1.000000e+00, %34
  %51 = fpext float %50 to double
  %52 = fsub double 1.000000e+00, %41
  %53 = fcmp ogt double %52, 0x3D719799812DEA11
  br i1 %53, label %54, label %57

54:                                               ; preds = %49
  %55 = call double @llvm.log.f64(double %52), !tbaa !127
  %56 = fmul double %55, %51
  br label %_ZN8LightGBML14XentLambdaLossEffd.exit

57:                                               ; preds = %49
  %58 = fmul double %51, 0xC03BA18A998FFFA0
  br label %_ZN8LightGBML14XentLambdaLossEffd.exit

_ZN8LightGBML14XentLambdaLossEffd.exit:           ; preds = %54, %57
  %.0.i.i = phi double [ %56, %54 ], [ %58, %57 ]
  %59 = fadd double %.012.i.i, %.0.i.i
  %60 = fsub double %28, %59
  store double %60, ptr %10, align 8, !tbaa !84
  %indvars.iv.next = add nsw i64 %indvars.iv, 1
  %61 = load i32, ptr %7, align 4, !tbaa !127
  %62 = sext i32 %61 to i64
  %.not.not = icmp slt i64 %indvars.iv, %62
  br i1 %.not.not, label %27, label %._crit_edge

._crit_edge:                                      ; preds = %_ZN8LightGBML14XentLambdaLossEffd.exit, %15
  call void @__kmpc_for_static_fini(ptr nonnull @1, i32 %17)
  store ptr %10, ptr %11, align 8
  %63 = call i32 @__kmpc_reduce_nowait(ptr nonnull @2, i32 %17, i32 1, i64 8, ptr nonnull %11, ptr nonnull @_ZNK8LightGBM24CrossEntropyLambdaMetric4EvalEPKdPKNS_17ObjectiveFunctionE.omp_outlined.95.omp.reduction.reduction_func, ptr nonnull @.gomp_critical_user_.reduction.var)
  switch i32 %63, label %71 [
    i32 1, label %64
    i32 2, label %68
  ]

64:                                               ; preds = %._crit_edge
  %65 = load double, ptr %4, align 8, !tbaa !84
  %66 = load double, ptr %10, align 8, !tbaa !84
  %67 = fadd double %65, %66
  store double %67, ptr %4, align 8, !tbaa !84
  call void @__kmpc_end_reduce_nowait(ptr nonnull @2, i32 %17, ptr nonnull @.gomp_critical_user_.reduction.var)
  br label %71

68:                                               ; preds = %._crit_edge
  %69 = load double, ptr %10, align 8, !tbaa !84
  %70 = atomicrmw fadd ptr %4, double %69 monotonic, align 8
  br label %71

71:                                               ; preds = %68, %64, %._crit_edge
  call void @llvm.lifetime.end.p0(i64 8, ptr nonnull %10) #16
  call void @llvm.lifetime.end.p0(i64 4, ptr nonnull %9) #16
  call void @llvm.lifetime.end.p0(i64 4, ptr nonnull %8) #16
  call void @llvm.lifetime.end.p0(i64 4, ptr nonnull %7) #16
  call void @llvm.lifetime.end.p0(i64 4, ptr nonnull %6) #16
  br label %72

72:                                               ; preds = %71, %5
  ret void
}